(lp1
(dp2
I5
(lp3
I1417023913
aI1417023919
asI6
(lp4
I1416744506
aI1416751087
aI1416754499
aI1416755789
aI1416755812
aI1416755834
aI1416755839
aI1416828251
aI1416828273
aI1416828279
aI1416828839
aI1416828874
aI1416828879
aI1416830804
aI1416830809
aI1416830849
aI1416834251
aI1416834256
aI1416834288
aI1416834293
aI1416834341
aI1416834346
aI1416834403
aI1416834408
aI1416834465
aI1416834470
aI1416834528
aI1416834533
aI1416834616
aI1416834621
aI1416834678
aI1416834683
aI1416834740
aI1416834746
aI1416834801
aI1416834806
aI1416834821
aI1416834861
aI1416834866
aI1416834892
aI1416834897
aI1416834966
aI1416834971
aI1416835028
aI1416835033
aI1416835089
aI1416835095
aI1416835143
aI1416835148
aI1416835189
aI1416835194
aI1416835256
aI1416835261
aI1416835301
aI1416835306
aI1416835355
aI1416835361
aI1416835389
aI1416835394
aI1416843858
aI1416843863
aI1416843936
aI1416843942
aI1416843989
aI1416843994
aI1416844051
aI1416844056
aI1416844085
aI1416844119
aI1416844124
aI1416844130
aI1416844177
aI1416844179
aI1416844181
aI1416844224
aI1416844229
aI1416924260
aI1416924265
aI1416924363
aI1416924368
aI1416925635
aI1417006917
aI1417015162
aI1417016694
aI1417020885
aI1417020889
aI1417020909
aI1417021163
aI1417023842
aI1417030882
aI1417035240
aI1417039131
aI1417083710
aI1417083748
aI1417083753
aI1417125090
aI1417125139
aI1417125145
aI1417168961
aI1417168966
aI1417175578
aI1417176350
aI1417176387
aI1417176392
aI1417176413
aI1417183508
aI1417187899
aI1417187937
aI1417187942
asI7
(lp5
I1416834251
aI1416834256
aI1416834288
aI1416834293
aI1416834341
aI1416834346
aI1416834403
aI1416834408
aI1416834465
aI1416834470
aI1416834528
aI1416834533
aI1416834616
aI1416834621
aI1416834678
aI1416834683
aI1416834740
aI1416834746
aI1416834801
aI1416834806
aI1416834821
aI1416834861
aI1416834866
aI1416834892
aI1416834897
aI1416834966
aI1416834971
aI1416835028
aI1416835033
aI1417094767
asI10
(lp6
I1416744506
aI1416924363
aI1416924368
aI1416927178
aI1416927200
aI1416927205
aI1416927241
aI1416927246
aI1416927313
aI1416927318
aI1417021012
aI1417021018
aI1417021032
aI1417021123
aI1417021129
aI1417035240
asI11
(lp7
I1416757680
aI1416757702
aI1416757707
aI1416757722
aI1416829341
aI1416829346
aI1416829403
aI1416829408
aI1416829459
aI1416829465
aI1416829512
aI1416829517
aI1416829564
aI1416829569
aI1416829595
aI1416829600
aI1416830667
aI1416830672
aI1416830719
aI1416830724
aI1416830941
aI1416830946
aI1416830990
aI1416830996
aI1416831059
aI1416831064
aI1416831177
aI1416831182
aI1416832062
aI1416832067
aI1416832124
aI1416832130
aI1416832160
aI1416832165
aI1416832211
aI1416832216
aI1416833760
aI1416833765
aI1416837783
aI1416837788
aI1416837835
aI1416837840
aI1416837878
aI1416837883
aI1416837930
aI1416837936
aI1416837980
aI1416837985
aI1416838009
aI1416838014
aI1416838061
aI1416838066
aI1416838115
aI1416838120
aI1416838152
aI1416838157
aI1416838197
aI1416838203
aI1416838299
aI1416838305
aI1416838344
aI1416838349
aI1416838507
aI1416838513
aI1416838929
aI1416838948
aI1416838954
aI1416838999
aI1416839004
aI1416839051
aI1416839056
aI1416839079
aI1416839084
aI1416839127
aI1416839132
aI1416839179
aI1416839184
aI1416839236
aI1416839242
aI1416839276
aI1416839281
aI1416839301
aI1416839306
aI1416839353
aI1416839358
aI1416839419
aI1416839424
aI1416839471
aI1416839476
aI1416839637
aI1416839643
aI1416839648
aI1416839668
aI1416839674
aI1416839691
aI1416839696
aI1416839745
aI1416839750
aI1416839810
aI1416839815
aI1416840107
aI1416840112
aI1416840179
aI1416840184
aI1416840231
aI1416840236
aI1416840283
aI1416840288
aI1416840316
aI1416840321
aI1416840353
aI1416840359
aI1416840406
aI1416840411
aI1416841278
aI1416841283
aI1416841293
aI1416841332
aI1416841338
aI1416841833
aI1416841838
aI1416841885
aI1416841890
aI1416841916
aI1416841922
aI1416841949
aI1416841955
aI1416841974
aI1416841979
aI1416842000
aI1416842005
aI1416842019
aI1416842024
aI1416842071
aI1416842076
aI1416842341
aI1416842346
aI1416842393
aI1416845878
aI1416845884
aI1416845902
aI1416845907
aI1416845927
aI1416845932
aI1416845956
aI1416845962
aI1416847928
aI1416847940
aI1416847945
aI1416850564
aI1416850577
aI1416850582
aI1416850619
aI1416852183
aI1416852188
aI1416852319
aI1416852324
aI1416852337
aI1416852342
aI1416852417
aI1416852422
aI1416854736
aI1416854741
aI1416854803
aI1416854809
aI1416854856
aI1416854861
aI1416857056
aI1416857061
aI1416858401
aI1416858406
aI1416859515
aI1416859520
aI1416859567
aI1416859572
aI1416859590
aI1416859595
aI1416860296
aI1416860308
aI1416860313
aI1416861817
aI1416861861
aI1416861873
aI1416861878
aI1417009831
aI1417036201
aI1417036233
aI1417181865
asI12
(lp8
I1416837783
aI1416837788
aI1416837835
aI1416837840
aI1416838152
aI1416838157
aI1416838197
aI1416838203
aI1416838299
aI1416838305
aI1416838344
aI1416838349
aI1416838507
aI1416838513
aI1416841833
aI1416841838
aI1416841885
aI1416841890
aI1416841916
aI1416841922
aI1416842000
aI1416842005
aI1416842019
aI1416842024
aI1416842071
aI1416842076
aI1416843773
aI1416843778
aI1416847735
aI1416847741
aI1416847788
aI1416847793
aI1416850602
aI1416850607
aI1416850619
aI1416866228
aI1416866251
aI1416866256
aI1416866303
aI1416866308
aI1416866332
aI1416866338
asI13
(lp9
I1416755812
aI1416755834
aI1416755839
aI1416757801
aI1416757806
aI1416757914
aI1416757919
aI1416757976
aI1416757981
aI1416758016
aI1416758021
aI1416758046
aI1416758051
aI1416759601
aI1416759611
aI1416759614
aI1416759619
aI1416830804
aI1416830809
aI1416831017
aI1416831022
aI1416831059
aI1416831064
aI1416831114
aI1416831119
aI1416832271
aI1416832276
aI1416833795
aI1416833798
aI1416833822
aI1416833827
aI1416833856
aI1416833862
aI1416833883
aI1416833888
aI1416833923
aI1416833928
aI1416835189
aI1416835194
aI1416835256
aI1416835261
aI1416835301
aI1416835306
aI1416835355
aI1416835361
aI1416835389
aI1416835394
aI1416840438
aI1416840443
aI1416840473
aI1416840479
aI1416840526
aI1416840531
aI1416840601
aI1416840606
aI1416840653
aI1416840659
aI1416840706
aI1416840711
aI1416841206
aI1416841211
aI1416841237
aI1416841244
aI1416841250
aI1416841255
aI1416841278
aI1416841283
aI1416841293
aI1416841299
aI1416841304
aI1416841332
aI1416841338
aI1416844801
aI1416845984
aI1416845989
aI1416846010
aI1416846015
aI1416846063
aI1416846068
aI1416846115
aI1416846120
aI1416846167
aI1416846172
aI1416846193
aI1416846198
aI1416925687
aI1416925709
aI1416925714
aI1416932150
aI1416932167
aI1416999687
aI1416999728
aI1416999734
aI1417002708
aI1417002746
aI1417002752
aI1417009023
aI1417009026
aI1417009071
aI1417009089
aI1417016694
aI1417020557
aI1417020595
aI1417020601
aI1417020616
aI1417036201
aI1417036233
aI1417039131
aI1417083710
aI1417083748
aI1417083753
aI1417124319
aI1417124356
aI1417124361
aI1417125225
aI1417176350
aI1417176387
aI1417176392
aI1417176494
aI1417176500
aI1417183611
aI1417183617
asI14
(lp10
I1416744918
aI1416744925
aI1416744926
aI1416744973
aI1416744980
aI1416744981
aI1416751234
aI1416751257
aI1416751263
aI1416751263
aI1416751320
aI1416751326
aI1416751327
aI1416751384
aI1416751390
aI1416755748
aI1416757472
aI1416757497
aI1416757502
aI1416760047
aI1416760069
aI1416760074
aI1416760077
aI1416760124
aI1416760128
aI1416760140
aI1416823083
aI1416823084
aI1416823089
aI1416823092
aI1416823093
aI1416826768
aI1416826790
aI1416826795
aI1416826801
aI1416826805
aI1416826816
aI1416826859
aI1416826881
aI1416826886
aI1416826941
aI1416826947
aI1416826968
aI1416826973
aI1416827004
aI1416827010
aI1416827023
aI1416827028
aI1416827248
aI1416827254
aI1416827293
aI1416827298
aI1416827355
aI1416827361
aI1416827448
aI1416827453
aI1416827490
aI1416827496
aI1416827514
aI1416827519
aI1416827566
aI1416827571
aI1416827616
aI1416827622
aI1416827629
aI1416828963
aI1416828969
aI1416829031
aI1416829037
aI1416829116
aI1416829122
aI1416829129
aI1416829144
aI1416829150
aI1416829829
aI1416829834
aI1416830406
aI1416830411
aI1416830458
aI1416830463
aI1416830487
aI1416830493
aI1416830574
aI1416830579
aI1416830620
aI1416830625
aI1416831263
aI1416831268
aI1416831326
aI1416831331
aI1416831459
aI1416831479
aI1416831484
aI1416831560
aI1416831565
aI1416831619
aI1416831624
aI1416831681
aI1416831687
aI1416831744
aI1416831749
aI1416831806
aI1416831811
aI1416831868
aI1416831874
aI1416831948
aI1416831953
aI1416831994
aI1416831999
aI1416832366
aI1416832388
aI1416832394
aI1416832430
aI1416832435
aI1416832477
aI1416832482
aI1416832540
aI1416832545
aI1416832634
aI1416832639
aI1416832665
aI1416832671
aI1416832728
aI1416832733
aI1416832790
aI1416832795
aI1416832852
aI1416832857
aI1416832878
aI1416832883
aI1416832940
aI1416832946
aI1416833035
aI1416833040
aI1416833098
aI1416833103
aI1416833160
aI1416833165
aI1416833222
aI1416833227
aI1416833285
aI1416833290
aI1416833347
aI1416833352
aI1416833409
aI1416833415
aI1416833472
aI1416833477
aI1416833541
aI1416833546
aI1416833604
aI1416833609
aI1416833666
aI1416833671
aI1416834002
aI1416834007
aI1416834062
aI1416834067
aI1416834093
aI1416834098
aI1416834149
aI1416834154
aI1416835492
aI1416835497
aI1416835529
aI1416835534
aI1416835591
aI1416835597
aI1416835642
aI1416835647
aI1416835705
aI1416835710
aI1416835736
aI1416835742
aI1416835779
aI1416835784
aI1416835888
aI1416835910
aI1416835915
aI1416836806
aI1416836812
aI1416836871
aI1416836876
aI1416836933
aI1416836939
aI1416836996
aI1416837015
aI1416837021
aI1416837078
aI1416837083
aI1416837122
aI1416837127
aI1416837159
aI1416837165
aI1416837184
aI1416837190
aI1416837238
aI1416837244
aI1416837301
aI1416837306
aI1416837368
aI1416837374
aI1416837404
aI1416837409
aI1416837473
aI1416837478
aI1416837504
aI1416837509
aI1416837566
aI1416837572
aI1416837609
aI1416837614
aI1416837689
aI1416837695
aI1416837738
aI1416837743
aI1416838236
aI1416838241
aI1416838265
aI1416838270
aI1416838431
aI1416838453
aI1416838459
aI1416838547
aI1416838552
aI1416838581
aI1416838587
aI1416838592
aI1416838613
aI1416838618
aI1416838639
aI1416838645
aI1416838668
aI1416838673
aI1416838720
aI1416838725
aI1416838756
aI1416838761
aI1416838785
aI1416838791
aI1416838838
aI1416838843
aI1416838890
aI1416838895
aI1416839984
aI1416839989
aI1416840059
aI1416840064
aI1416841736
aI1416841741
aI1416841783
aI1416841788
aI1416842893
aI1416842915
aI1416842920
aI1416843633
aI1416843664
aI1416843670
aI1416843724
aI1416843729
aI1416844854
aI1416844860
aI1416844917
aI1416844922
aI1416844979
aI1416844984
aI1416845021
aI1416845027
aI1416845751
aI1416845773
aI1416845778
aI1416845831
aI1416845836
aI1416846308
aI1416846330
aI1416846335
aI1416846376
aI1416846381
aI1416846626
aI1416846644
aI1416846649
aI1416846715
aI1416846721
aI1416846758
aI1416846763
aI1416846815
aI1416846821
aI1416846872
aI1416846877
aI1416846931
aI1416846943
aI1416846948
aI1416846970
aI1416846975
aI1416847018
aI1416847023
aI1416847070
aI1416847075
aI1416847108
aI1416847113
aI1416847160
aI1416847166
aI1416847191
aI1416847196
aI1416847244
aI1416847249
aI1416847296
aI1416847301
aI1416847373
aI1416847378
aI1416847425
aI1416847431
aI1416847447
aI1416847452
aI1416847499
aI1416847504
aI1416847551
aI1416847556
aI1416847609
aI1416847614
aI1416847635
aI1416847641
aI1416847839
aI1416847844
aI1416847992
aI1416847998
aI1416848099
aI1416848104
aI1416848139
aI1416848145
aI1416848177
aI1416848193
aI1416848199
aI1416848271
aI1416848277
aI1416848334
aI1416848339
aI1416848360
aI1416848366
aI1416848398
aI1416848403
aI1416848497
aI1416848502
aI1416848582
aI1416848587
aI1416848635
aI1416848640
aI1416849058
aI1416849063
aI1416849098
aI1416849103
aI1416850630
aI1416850635
aI1416850654
aI1416850660
aI1416850707
aI1416850712
aI1416850780
aI1416850785
aI1416850842
aI1416850848
aI1416850905
aI1416850910
aI1416851200
aI1416851220
aI1416851242
aI1416851247
aI1416852129
aI1416852134
aI1416854451
aI1416854463
aI1416854468
aI1416854972
aI1416854977
aI1416855035
aI1416855040
aI1416855072
aI1416855077
aI1416856141
aI1416856163
aI1416856168
aI1416856202
aI1416856207
aI1416856965
aI1416856987
aI1416856992
aI1416857831
aI1416857853
aI1416857858
aI1416858333
aI1416858355
aI1416858360
aI1416858525
aI1416858546
aI1416858552
aI1416859201
aI1416859219
aI1416859242
aI1416859247
aI1416859290
aI1416859296
aI1416859337
aI1416859342
aI1416859400
aI1416859405
aI1416859463
aI1416859468
aI1416859640
aI1416859645
aI1416859702
aI1416859708
aI1416859765
aI1416859770
aI1416859809
aI1416859814
aI1416860360
aI1416860365
aI1416860404
aI1416860410
aI1416860454
aI1416860459
aI1416860494
aI1416860499
aI1416860603
aI1416860625
aI1416860630
aI1416860878
aI1416860900
aI1416860905
aI1416860982
aI1416861004
aI1416861009
aI1416861097
aI1416861102
aI1416861925
aI1416861930
aI1416862010
aI1416862015
aI1416862061
aI1416862326
aI1416862331
aI1416862390
aI1416862395
aI1416862416
aI1416862421
aI1416862938
aI1416862949
aI1416862955
aI1416862975
aI1416862980
aI1416863016
aI1416863021
aI1416863476
aI1416863487
aI1416863493
aI1416863513
aI1416863518
aI1416863538
aI1416863543
aI1416863590
aI1416863595
aI1416863642
aI1416863647
aI1416863695
aI1416863700
aI1416863730
aI1416863735
aI1416863746
aI1416863751
aI1416863763
aI1416863768
aI1416864012
aI1416864024
aI1416864029
aI1416864054
aI1416864059
aI1416864080
aI1416864086
aI1416865011
aI1416865023
aI1416865028
aI1416865049
aI1416865054
aI1416865397
aI1416865409
aI1416865414
aI1416865434
aI1416865440
aI1416865985
aI1416865997
aI1416866002
aI1416866022
aI1416866028
aI1416866050
aI1416866055
aI1416866107
aI1416866112
aI1416866228
aI1416866251
aI1416866256
aI1416866303
aI1416866308
aI1416866332
aI1416866338
aI1416866478
aI1416866484
aI1417001726
aI1417002415
aI1417005377
aI1417011877
aI1417019547
aI1417019625
aI1417019631
aI1417026249
aI1417026775
aI1417035538
aI1417035582
aI1417035588
aI1417038248
aI1417038760
aI1417038798
aI1417038804
aI1417084521
aI1417095722
aI1417098977
aI1417099014
aI1417099019
aI1417102171
aI1417102208
aI1417102213
aI1417102286
aI1417102291
aI1417103383
aI1417103645
aI1417103657
aI1417103662
aI1417103682
aI1417103687
aI1417103707
aI1417103713
aI1417103773
aI1417103778
aI1417103826
aI1417103831
aI1417103878
aI1417103883
aI1417103905
aI1417103911
aI1417103942
aI1417103947
aI1417104133
aI1417104145
aI1417104151
aI1417104173
aI1417104178
aI1417104199
aI1417104204
aI1417104279
aI1417104284
aI1417104334
aI1417104339
aI1417104791
aI1417104803
aI1417104809
aI1417104832
aI1417104837
aI1417104896
aI1417104901
aI1417104945
aI1417104950
aI1417104974
aI1417104979
aI1417105081
aI1417106606
aI1417106618
aI1417106623
aI1417107200
aI1417107212
aI1417107217
aI1417107253
aI1417107259
aI1417107278
aI1417107283
aI1417107319
aI1417107324
aI1417107371
aI1417107377
aI1417107424
aI1417107429
aI1417107503
aI1417107515
aI1417107521
aI1417107541
aI1417107546
aI1417107568
aI1417107573
aI1417107634
aI1417107639
aI1417107663
aI1417107665
aI1417107672
aI1417107677
aI1417107724
aI1417107729
aI1417107776
aI1417107781
aI1417107799
aI1417107804
aI1417107822
aI1417107827
aI1417107894
aI1417107900
aI1417107962
aI1417107968
aI1417108015
aI1417108020
aI1417108047
aI1417108052
aI1417108090
aI1417108096
aI1417108154
aI1417108159
aI1417108206
aI1417108211
aI1417108255
aI1417108261
aI1417108308
aI1417117212
aI1417117249
aI1417117254
aI1417118227
aI1417118264
aI1417118269
aI1417118828
aI1417118866
aI1417118871
aI1417168807
aI1417168810
aI1417168811
aI1417168885
aI1417168907
aI1417169435
aI1417169472
aI1417169477
aI1417170033
aI1417170035
aI1417170038
aI1417170041
aI1417170043
aI1417170050
aI1417170052
aI1417170053
aI1417170053
aI1417170056
aI1417170058
aI1417170074
aI1417170083
aI1417170245
aI1417170246
aI1417170249
aI1417170255
aI1417170258
aI1417170263
aI1417170263
aI1417170277
aI1417177959
aI1417178009
aI1417178014
aI1417178067
aI1417178073
aI1417180010
aI1417180013
aI1417180016
aI1417180017
aI1417180019
aI1417180019
aI1417180019
aI1417180019
aI1417180021
aI1417180024
aI1417180028
aI1417180029
aI1417180031
aI1417180033
aI1417180037
aI1417180039
aI1417180040
aI1417180042
aI1417180048
aI1417180049
aI1417180052
aI1417180053
aI1417180056
aI1417180056
aI1417183309
aI1417183359
aI1417183364
aI1417185268
aI1417185305
aI1417185310
aI1417187056
aI1417187094
aI1417187099
aI1417187124
aI1417187186
aI1417187192
aI1417188044
asI17
(lp11
I1416756116
aI1416756150
aI1416756155
aI1416848808
aI1416848813
aI1416852570
aI1416852576
aI1416853086
aI1416853091
aI1416866892
aI1416866898
aI1416867016
aI1416867022
aI1416931742
aI1417081069
aI1417170395
aI1417174152
aI1417179859
aI1417179861
aI1417179863
asI18
(lp12
I1416760181
aI1416823253
aI1416823275
aI1416823280
aI1416825538
aI1416825544
aI1416825549
aI1416825551
aI1416825592
aI1416825598
aI1416825600
aI1416825641
aI1416825646
aI1416825676
aI1416826267
aI1416826289
aI1416826294
aI1416836189
aI1416836194
aI1416846474
aI1416846480
aI1416846485
aI1416846529
aI1416846534
aI1416848742
aI1416848748
aI1416851553
aI1416851575
aI1416851580
aI1416852956
aI1416852961
aI1416852985
aI1416852991
aI1416857456
aI1416857478
aI1416857483
aI1416857502
aI1416864343
aI1416864348
aI1416864522
aI1416864527
aI1416864542
aI1416864547
aI1416864588
aI1416864593
aI1416864634
aI1416864639
aI1416864685
aI1416864690
aI1416864731
aI1416864734
aI1416864735
aI1416864740
aI1416864755
aI1416864756
aI1416864757
aI1416864759
aI1416864759
aI1416864764
aI1416864805
aI1416864810
aI1416865780
aI1416865786
aI1416865856
aI1416865861
aI1416867822
aI1416867828
aI1417000754
aI1417000760
aI1417026539
aI1417026594
aI1417026600
aI1417028940
aI1417028946
aI1417028952
aI1417028980
aI1417029056
aI1417029062
aI1417029089
aI1417029095
aI1417029105
aI1417029111
aI1417029129
aI1417029135
aI1417029173
aI1417029179
aI1417029220
aI1417029226
aI1417029267
aI1417029273
aI1417029314
aI1417029320
aI1417029399
aI1417029405
aI1417029433
aI1417029439
aI1417029481
aI1417029487
aI1417029527
aI1417029533
aI1417029574
aI1417029580
aI1417029615
aI1417029621
aI1417034332
aI1417034337
aI1417084043
aI1417084896
aI1417084906
aI1417097698
aI1417097704
aI1417097744
aI1417097749
aI1417170471
aI1417170472
aI1417170478
aI1417170481
aI1417170483
aI1417170485
aI1417170486
aI1417170488
aI1417170489
aI1417170492
aI1417170541
aI1417170542
aI1417170543
aI1417170546
aI1417170547
aI1417170567
aI1417170569
aI1417170579
aI1417170584
aI1417170593
aI1417170618
aI1417170622
aI1417170623
aI1417170645
aI1417170649
aI1417170653
aI1417170654
aI1417170655
aI1417170666
aI1417170691
aI1417170695
aI1417170701
aI1417170741
aI1417172678
aI1417172718
aI1417172724
aI1417172729
aI1417172790
aI1417172795
aI1417172812
aI1417172817
aI1417172851
aI1417172856
aI1417172884
aI1417172889
aI1417172942
aI1417172947
aI1417172988
aI1417172993
aI1417173034
aI1417173039
aI1417173080
aI1417173085
aI1417173126
aI1417173131
aI1417173169
aI1417173174
aI1417173227
aI1417173232
aI1417173273
aI1417173278
aI1417173294
aI1417173299
aI1417173340
aI1417173345
aI1417173372
aI1417173377
aI1417173394
aI1417173399
aI1417177633
aI1417177670
aI1417177675
aI1417179911
aI1417179917
aI1417179918
aI1417179919
aI1417179920
aI1417179922
aI1417179922
aI1417179922
aI1417179924
aI1417179924
aI1417179926
aI1417179926
aI1417179931
aI1417179936
aI1417179939
aI1417179939
aI1417179942
aI1417180572
aI1417180581
aI1417180613
aI1417180618
aI1417180659
aI1417180664
aI1417180688
aI1417180694
aI1417180735
aI1417180740
aI1417180781
aI1417180786
aI1417180843
aI1417180846
aI1417180858
aI1417180864
aI1417180874
aI1417180876
aI1417180882
aI1417181103
aI1417190870
asI19
(lp13
I1416745242
aI1416745243
aI1416756285
aI1416757016
aI1416757019
aI1416760200
aI1416760937
aI1416760939
aI1416760975
aI1416760980
aI1416760984
aI1416867472
aI1416867477
aI1417000054
asI20
(lp14
I1416745047
aI1416745054
aI1416745143
aI1416745150
aI1416745150
aI1416745197
aI1416745204
aI1416745204
aI1416745226
aI1416747313
aI1416750681
aI1416750704
aI1416750710
aI1416750710
aI1416750767
aI1416750773
aI1416750773
aI1416750831
aI1416750837
aI1416754029
aI1416754051
aI1416754057
aI1416754059
aI1416754123
aI1416754128
aI1416754130
aI1416824907
aI1416824929
aI1416824934
aI1416827717
aI1416827725
aI1416827787
aI1416827809
aI1416827815
aI1416836273
aI1416836279
aI1416836355
aI1416836360
aI1416836417
aI1416836423
aI1416836480
aI1416836485
aI1416843446
aI1416843468
aI1416843473
aI1416845210
aI1416845232
aI1416845237
aI1416849419
aI1416849441
aI1416849447
aI1416849646
aI1416849699
aI1416849724
aI1416849730
aI1416849763
aI1416849769
aI1416851724
aI1416851729
aI1416851759
aI1416851765
aI1416851794
aI1416851800
aI1416851859
aI1416851865
aI1416851908
aI1416851913
aI1416852705
aI1416852710
aI1416852746
aI1416852758
aI1416852763
aI1416852785
aI1416852790
aI1416852810
aI1416852815
aI1416852866
aI1416852872
aI1416852898
aI1416852903
aI1416853327
aI1416853332
aI1416853382
aI1416853387
aI1416853448
aI1416853453
aI1416853529
aI1416853534
aI1416853574
aI1416853579
aI1416853637
aI1416853642
aI1416853699
aI1416853704
aI1416855905
aI1416855910
aI1416855950
aI1416855955
aI1416858048
aI1416858075
aI1416858080
aI1416858101
aI1416860002
aI1416860024
aI1416860029
aI1416861491
aI1416861513
aI1416861519
aI1416862532
aI1416862554
aI1416862559
aI1416862619
aI1416862625
aI1416863232
aI1416863254
aI1416863259
aI1416863290
aI1416863308
aI1416863330
aI1416863335
aI1416865281
aI1416865618
aI1416865640
aI1416865645
aI1416867761
aI1416867766
aI1416929334
aI1416929340
aI1416929464
aI1416929470
aI1416929475
aI1416929476
aI1416929479
aI1416929480
aI1416929482
aI1416929503
aI1416929508
aI1416929561
aI1416931364
aI1416931368
aI1416931405
aI1417000500
aI1417000538
aI1417000544
aI1417000562
aI1417002051
aI1417002089
aI1417002095
aI1417002112
aI1417004337
aI1417004375
aI1417004381
aI1417004408
aI1417005808
aI1417005846
aI1417005852
aI1417005870
aI1417007590
aI1417007628
aI1417007634
aI1417008506
aI1417008544
aI1417008550
aI1417008588
aI1417009435
aI1417009473
aI1417009479
aI1417010724
aI1417010873
aI1417010911
aI1417010917
aI1417012412
aI1417012425
aI1417012431
aI1417012445
aI1417012494
aI1417012500
aI1417012515
aI1417012548
aI1417012555
aI1417014753
aI1417032069
aI1417032107
aI1417032113
aI1417084206
aI1417084243
aI1417084248
aI1417084308
aI1417084313
aI1417088006
aI1417088043
aI1417088048
aI1417088069
aI1417088071
aI1417092496
aI1417092501
aI1417093111
aI1417093123
aI1417093128
aI1417093153
aI1417093776
aI1417093813
aI1417093818
aI1417105295
aI1417105297
aI1417112121
aI1417112165
aI1417112170
aI1417112189
aI1417119127
aI1417119164
aI1417119169
aI1417119954
aI1417119965
aI1417119971
aI1417124764
aI1417167356
aI1417167357
aI1417180987
aI1417180990
aI1417180991
aI1417180996
aI1417181006
aI1417181007
aI1417181010
aI1417181015
aI1417181026
aI1417181027
aI1417181033
asa(dp15
I5
(lp16
sI7
(lp17
I1416834841
aI1416834226
aI1416834222
aI1416834252
asI8
(lp18
sI11
(lp19
I1416830707
aI1416839026
aI1416830659
aI1416841046
aI1416839505
aI1416839267
aI1416845969
aI1416841327
aI1416839279
aI1416831139
aI1416831162
aI1416839123
aI1416842013
aI1416839014
aI1416829449
aI1416839146
aI1416859517
aI1416839088
aI1416833748
aI1416832137
aI1416839000
aI1416829605
aI1416839595
aI1416829801
aI1416833719
aI1416835436
aI1416831138
aI1416847879
aI1416832148
aI1416838342
aI1416830701
aI1416830620
aI1416830751
aI1416841999
aI1416830674
aI1416844473
aI1416833750
aI1416838537
aI1416841983
aI1416840875
aI1416839725
aI1416839304
aI1416829450
aI1416839826
aI1416839177
aI1416841992
aI1416829801
aI1416847919
aI1416831137
aI1416839459
aI1416839361
aI1416832235
aI1416838170
aI1416831104
aI1416842930
aI1416839254
aI1416829466
aI1416829771
aI1416841971
aI1416831116
aI1416830694
aI1416829783
aI1416839453
aI1416831393
aI1416844387
aI1416833758
aI1416830658
aI1416839194
aI1416841951
aI1416839047
aI1416839636
aI1416841805
aI1416842797
aI1416839281
aI1416840534
aI1416831040
aI1416844445
aI1416841988
aI1416830685
aI1416839091
aI1416830669
aI1416839828
aI1416829467
aI1416839465
aI1416833798
aI1416839755
aI1416847919
aI1416841343
aI1416839070
aI1416838919
aI1416854408
aI1416839081
aI1416844355
aI1416838993
aI1416834181
aI1416842321
aI1416842484
aI1416839817
aI1416839325
aI1416842540
aI1416846246
aI1416832333
aI1416839174
aI1416846242
aI1416839043
aI1416838188
aI1416839224
aI1416832163
aI1416831189
aI1416844396
aI1416841849
aI1416833761
asI12
(lp20
I1416842797
aI1416832334
aI1416850621
aI1416850902
aI1416838009
aI1416843788
aI1416847972
aI1416850642
aI1416844969
aI1416854637
aI1416842869
aI1416829785
aI1416838225
aI1416847806
aI1416850880
aI1416847958
aI1416852401
aI1416838260
aI1416838916
aI1416838358
aI1416838276
aI1416857778
aI1416842883
aI1416838285
aI1416837833
aI1416843769
aI1416850803
aI1416850851
aI1416850769
aI1416829620
aI1416844985
aI1416842935
aI1416831389
aI1416844949
aI1416841563
aI1416850819
aI1416838243
aI1416838150
aI1416838510
aI1416847889
aI1416838010
aI1416850881
aI1416842872
aI1416838233
aI1416850751
aI1416838359
aI1416834129
aI1416850903
aI1416847825
aI1416842007
aI1416847712
aI1416838272
aI1416837936
aI1416847886
aI1416847968
aI1416842866
aI1416838247
aI1416838495
aI1416844934
aI1416847716
aI1416844998
aI1416842945
aI1416850818
aI1416838359
aI1416845006
aI1416850779
aI1416850937
aI1416850869
aI1416847879
aI1416838275
aI1416847727
asI13
(lp21
I1416839882
aI1416844254
aI1416844485
aI1416844387
aI1416844514
aI1416866165
aI1416832231
aI1416844453
aI1416841141
aI1416844275
aI1416845995
aI1416842590
aI1416832191
aI1416844415
aI1416839848
aI1416835445
aI1416844422
aI1416844398
aI1416844281
aI1416844442
aI1416831092
aI1416842610
aI1416842595
aI1416844374
aI1416835440
asI14
(lp22
I1416837595
aI1416847178
aI1416837111
aI1416846777
aI1416831458
aI1416835680
aI1416846957
aI1416835542
aI1416843690
aI1416846685
aI1416856222
aI1416849041
aI1416866276
aI1416833636
aI1416860896
aI1416845845
aI1416866095
aI1416837491
aI1416831504
aI1416846757
aI1416837452
aI1416837220
aI1416837712
aI1416856119
aI1416843709
aI1416847549
aI1416844835
aI1416846993
aI1416858719
aI1416832907
aI1416856225
aI1416865032
aI1416845737
aI1416832608
aI1416861090
aI1416836901
aI1416835816
aI1416866070
aI1416865096
aI1416855062
aI1416836946
aI1416832390
aI1416837663
aI1416835545
aI1416835715
aI1416831901
aI1416831380
aI1416837444
aI1416848552
aI1416850982
aI1416837380
aI1416836836
aI1416847612
aI1416847368
aI1416849089
aI1416847552
aI1416832707
aI1416837758
aI1416858768
aI1416831412
aI1416849058
aI1416837569
aI1416855098
aI1416832600
aI1416837566
aI1416832363
aI1416863759
aI1416865048
aI1416847552
aI1416847382
aI1416847428
aI1416849098
aI1416831315
aI1416835512
aI1416849036
aI1416859205
aI1416836913
aI1416837648
aI1416858296
aI1416858677
aI1416835491
aI1416851228
aI1416846954
aI1416847485
aI1416847348
aI1416860641
aI1416848141
aI1416865970
aI1416846601
aI1416836628
aI1416859138
aI1416848071
aI1416837248
aI1416831777
aI1416837743
aI1416837344
aI1416837343
aI1416844858
aI1416837185
aI1416836792
aI1416847605
aI1416855014
aI1416850978
aI1416832548
aI1416836916
aI1416831796
aI1416845755
aI1416837499
aI1416858763
aI1416837443
aI1416837648
aI1416847603
aI1416835548
aI1416835721
aI1416832939
aI1416831909
aI1416858592
aI1416837481
aI1416835575
aI1416856200
aI1416846346
aI1416836988
aI1416845071
aI1416835683
aI1416837677
aI1416837638
aI1416845733
aI1416832359
aI1416837370
aI1416847505
aI1416843659
aI1416845791
aI1416837544
aI1416832947
aI1416837077
aI1416854510
aI1416851205
aI1416833336
aI1416864047
aI1416865009
aI1416851198
aI1416845762
aI1416837531
aI1416832370
aI1416860987
aI1416837313
aI1416845760
aI1416858743
aI1416837678
aI1416837004
aI1416835592
aI1416831861
aI1416837659
aI1416837383
aI1416861058
aI1416836887
aI1416837739
aI1416851320
aI1416844970
aI1416864072
aI1416865966
aI1416832726
aI1416835630
aI1416836929
aI1416847381
aI1416847150
aI1416835937
aI1416863762
aI1416835612
aI1416847372
aI1416831474
aI1416832385
aI1416857761
aI1416836979
aI1416847520
aI1416833697
aI1416837660
aI1416837084
aI1416846301
aI1416835800
aI1416836912
aI1416858874
aI1416846772
aI1416858296
aI1416856173
aI1416831867
aI1416851254
aI1416865038
aI1416843696
aI1416831474
aI1416831802
aI1416860973
aI1416837391
aI1416832616
aI1416851211
aI1416847571
aI1416836897
aI1416854953
aI1416835811
aI1416846915
aI1416832713
aI1416837351
aI1416856991
aI1416846690
aI1416846970
aI1416846954
aI1416854506
aI1416835916
aI1416859837
aI1416837153
aI1416835706
aI1416848201
aI1416832943
aI1416850730
aI1416847552
aI1416835610
aI1416858861
aI1416862351
aI1416835616
aI1416848234
aI1416856942
aI1416837260
aI1416835645
aI1416837132
aI1416860858
aI1416837223
aI1416837420
aI1416849038
aI1416836632
aI1416832505
aI1416845728
aI1416835529
aI1416847458
aI1416845790
aI1416846994
aI1416847205
aI1416831456
aI1416836788
aI1416851242
aI1416845748
aI1416837019
aI1416848544
aI1416837231
aI1416835676
aI1416833376
aI1416836808
aI1416835659
aI1416837224
aI1416837128
aI1416857914
aI1416854376
aI1416831964
aI1416835527
aI1416832941
aI1416835650
aI1416835638
aI1416864021
aI1416835490
aI1416859032
aI1416851202
aI1416866099
aI1416855072
aI1416831752
aI1416835695
aI1416835629
aI1416835685
aI1416847522
aI1416842942
aI1416846815
aI1416846743
aI1416846348
aI1416837734
aI1416832756
aI1416847127
aI1416865428
aI1416847276
aI1416837580
aI1416837559
aI1416843634
aI1416852133
aI1416860586
aI1416846695
aI1416831910
aI1416846330
aI1416837355
aI1416835946
aI1416837084
aI1416832561
aI1416837731
aI1416845845
aI1416835607
aI1416842954
aI1416846623
aI1416863654
aI1416831516
aI1416864066
aI1416859194
aI1416863615
aI1416833563
aI1416837760
aI1416858609
aI1416851334
aI1416837323
aI1416845770
aI1416847493
aI1416865012
aI1416831540
aI1416835906
aI1416851211
aI1416831539
aI1416835593
aI1416832410
aI1416857862
aI1416852152
aI1416863499
aI1416836823
aI1416863657
aI1416835569
aI1416842989
aI1416835717
aI1416837583
aI1416837643
aI1416842976
aI1416833312
aI1416837147
aI1416831697
aI1416848190
aI1416842880
aI1416847198
aI1416864046
aI1416836875
aI1416837408
aI1416836919
aI1416846341
aI1416837250
aI1416833276
aI1416847289
aI1416837529
aI1416859132
aI1416836830
aI1416861087
aI1416863583
aI1416858681
aI1416845774
aI1416837690
aI1416860604
aI1416837156
aI1416859054
aI1416852123
aI1416836833
aI1416854997
aI1416851317
aI1416837696
aI1416846720
aI1416846267
aI1416837513
aI1416842983
aI1416831901
aI1416837523
aI1416837548
aI1416842958
aI1416856935
aI1416836835
aI1416843609
aI1416833462
aI1416864064
aI1416836909
aI1416858745
aI1416832918
aI1416837645
aI1416837320
aI1416837495
aI1416856165
aI1416845851
aI1416832745
aI1416846315
aI1416846297
aI1416861094
aI1416863709
aI1416835711
aI1416846641
aI1416862005
aI1416847575
aI1416847056
aI1416854953
aI1416858799
aI1416858620
aI1416845846
aI1416835954
aI1416837163
aI1416846745
aI1416858803
aI1416835716
aI1416857872
aI1416849055
aI1416832367
aI1416836782
aI1416837550
aI1416842809
aI1416866089
aI1416862946
aI1416837305
aI1416837275
aI1416863010
aI1416851395
aI1416837584
aI1416863017
aI1416856218
aI1416837361
aI1416847574
aI1416835678
aI1416842967
aI1416837042
aI1416837100
aI1416831710
aI1416848553
aI1416849052
aI1416843013
aI1416831557
aI1416847265
aI1416835517
aI1416860898
aI1416846748
aI1416846693
aI1416866024
aI1416850972
aI1416832910
aI1416837062
aI1416837688
aI1416837551
aI1416857877
aI1416866039
aI1416863508
aI1416845787
aI1416845041
aI1416847394
aI1416837477
aI1416855000
aI1416856940
aI1416859317
aI1416837067
aI1416831531
aI1416851306
aI1416835554
aI1416861051
aI1416837359
aI1416857019
aI1416837750
aI1416833642
aI1416866048
aI1416845054
aI1416837013
aI1416842954
aI1416861065
aI1416837719
aI1416847355
aI1416847053
aI1416850663
aI1416846778
aI1416836938
aI1416845779
aI1416847636
aI1416835811
aI1416837745
aI1416842955
aI1416837754
aI1416861990
aI1416851211
aI1416847520
aI1416847178
aI1416836980
aI1416865038
aI1416837209
aI1416837764
aI1416859076
aI1416851191
aI1416847318
aI1416843689
aI1416856173
aI1416835638
aI1416836796
aI1416837368
aI1416851212
aI1416831517
aI1416836924
aI1416837240
aI1416847119
aI1416837371
aI1416836786
aI1416835594
aI1416835633
aI1416852442
aI1416837030
aI1416837259
aI1416837403
aI1416856172
aI1416859076
aI1416847481
aI1416851188
aI1416837116
aI1416859212
aI1416837690
aI1416835945
aI1416846741
aI1416837759
aI1416847353
aI1416847219
aI1416857921
aI1416859139
aI1416837667
aI1416843648
aI1416854438
aI1416865967
aI1416837655
aI1416849290
aI1416847473
aI1416831897
aI1416860937
aI1416863513
aI1416846279
aI1416845730
aI1416837572
aI1416831881
aI1416837472
aI1416845815
aI1416831794
aI1416842830
aI1416835886
aI1416835742
aI1416858998
aI1416854506
aI1416835484
aI1416837132
aI1416858843
aI1416836936
aI1416837606
aI1416837543
aI1416858999
aI1416835686
aI1416847468
aI1416845740
aI1416836902
aI1416837335
aI1416833086
aI1416835696
aI1416836903
aI1416858287
aI1416837757
aI1416859013
aI1416837183
aI1416866114
aI1416835810
aI1416865010
aI1416845796
aI1416843689
aI1416845051
aI1416837125
aI1416845779
aI1416837133
aI1416863461
aI1416836921
aI1416855073
aI1416837613
aI1416832617
aI1416847393
aI1416864052
aI1416837487
aI1416837140
aI1416846985
aI1416835699
aI1416846633
aI1416846974
aI1416860644
aI1416846388
aI1416836982
aI1416845748
aI1416860254
aI1416865432
aI1416831794
aI1416843672
aI1416847347
aI1416837246
aI1416831478
aI1416835744
aI1416835589
aI1416849029
aI1416832348
aI1416837020
aI1416835815
aI1416859147
aI1416832444
aI1416836952
aI1416833567
aI1416847099
aI1416851388
aI1416863720
aI1416848201
aI1416831796
aI1416837623
aI1416847039
aI1416837061
aI1416837507
aI1416837523
aI1416835475
aI1416831532
aI1416833307
aI1416837746
aI1416847108
aI1416847565
aI1416847266
aI1416843726
aI1416837242
aI1416837691
aI1416858717
aI1416831413
aI1416837385
aI1416837750
aI1416831875
aI1416854369
aI1416861183
aI1416848140
aI1416843624
aI1416859275
aI1416865038
aI1416835756
aI1416837405
aI1416860957
aI1416835482
aI1416863547
aI1416832484
aI1416835656
aI1416832855
aI1416850960
aI1416847616
aI1416845832
aI1416849265
aI1416866386
aI1416847484
aI1416837070
aI1416859428
aI1416843673
aI1416835681
aI1416837139
aI1416837262
aI1416837548
aI1416861790
aI1416854498
aI1416836897
aI1416851230
aI1416857805
aI1416837717
aI1416832724
aI1416856125
aI1416835809
aI1416836884
aI1416831474
aI1416835946
aI1416837629
aI1416836783
aI1416852121
aI1416856142
aI1416864034
aI1416847505
aI1416845043
aI1416847561
aI1416837216
aI1416846788
aI1416837565
aI1416846986
aI1416845770
aI1416856236
aI1416852114
aI1416835626
aI1416835590
aI1416842973
aI1416847442
aI1416862919
aI1416854500
aI1416865063
aI1416831825
aI1416835759
aI1416847134
aI1416845839
aI1416857863
aI1416837265
aI1416866090
aI1416859084
aI1416847089
aI1416865012
aI1416845758
aI1416837159
aI1416847368
aI1416847182
aI1416837040
aI1416846317
aI1416836811
aI1416837266
aI1416832949
aI1416837669
aI1416847121
aI1416835607
aI1416837561
aI1416858833
aI1416851330
aI1416856129
aI1416847520
aI1416837091
aI1416851217
aI1416842809
aI1416837312
aI1416837251
aI1416837409
aI1416831795
aI1416858887
aI1416859079
aI1416846346
aI1416863484
aI1416848218
aI1416836923
aI1416837634
aI1416858310
aI1416835590
aI1416837664
aI1416832932
aI1416855017
aI1416855062
aI1416858807
aI1416846607
aI1416847687
aI1416856212
aI1416854481
aI1416865084
aI1416860616
aI1416831422
aI1416837209
aI1416854359
aI1416832914
aI1416857000
aI1416854487
aI1416837036
aI1416831784
aI1416837540
aI1416831471
aI1416837763
aI1416857020
aI1416845031
aI1416831237
aI1416833646
aI1416846271
aI1416847454
aI1416837074
aI1416845757
aI1416848069
aI1416858366
aI1416846326
aI1416837523
aI1416837712
aI1416851247
aI1416831890
aI1416842974
aI1416847083
aI1416847478
aI1416864991
aI1416861011
aI1416837019
aI1416837561
aI1416835942
aI1416858908
aI1416835526
aI1416857868
aI1416843610
aI1416850958
aI1416859453
aI1416837388
aI1416857749
aI1416837097
aI1416863472
aI1416836990
aI1416837067
aI1416852159
aI1416831446
aI1416837630
aI1416859180
aI1416843619
aI1416849027
aI1416835524
aI1416848150
aI1416832720
aI1416836920
aI1416832959
aI1416835569
aI1416858799
aI1416845800
aI1416832685
aI1416835623
aI1416862410
aI1416846700
aI1416832504
aI1416863016
aI1416837757
aI1416842842
aI1416848097
aI1416847552
aI1416863767
aI1416837694
aI1416857352
aI1416846792
aI1416837234
aI1416857866
aI1416866024
aI1416858919
aI1416859046
aI1416860983
aI1416846711
aI1416835934
aI1416837383
aI1416837227
aI1416866043
aI1416831706
aI1416837646
aI1416837232
aI1416856172
aI1416837077
aI1416837169
aI1416854509
aI1416845757
aI1416865382
aI1416837211
aI1416842986
aI1416835587
aI1416831530
aI1416837752
aI1416845731
aI1416837175
aI1416835611
aI1416847274
aI1416847074
aI1416846728
aI1416847509
aI1416836819
aI1416846782
aI1416851303
aI1416847121
aI1416861011
aI1416845051
aI1416837380
aI1416855009
aI1416837696
aI1416835475
aI1416837038
aI1416837546
aI1416861003
aI1416848215
aI1416843611
aI1416852299
aI1416837727
aI1416836875
aI1416831376
aI1416865966
aI1416852441
aI1416846299
aI1416842834
aI1416857729
aI1416866025
aI1416851251
aI1416846761
aI1416837022
aI1416858835
aI1416851263
aI1416847313
aI1416848210
aI1416843701
aI1416856157
aI1416864089
aI1416843700
aI1416847501
aI1416836805
aI1416837022
aI1416837488
aI1416837567
aI1416863543
aI1416846746
aI1416837005
aI1416846686
aI1416847291
aI1416842954
aI1416843023
aI1416858370
aI1416854502
aI1416837760
aI1416859222
aI1416837256
aI1416863506
aI1416837361
aI1416846949
aI1416860597
aI1416848078
aI1416832362
aI1416832405
aI1416831642
aI1416832789
aI1416837194
aI1416832403
aI1416848086
aI1416848140
aI1416861068
aI1416835937
aI1416847520
aI1416847520
aI1416863579
aI1416836690
aI1416848543
aI1416833513
aI1416837238
aI1416837532
aI1416856118
aI1416837580
aI1416846702
aI1416856233
aI1416832589
aI1416847602
aI1416837120
aI1416845734
aI1416831620
aI1416836875
aI1416832510
aI1416845842
aI1416845724
aI1416835579
aI1416863983
aI1416858948
aI1416837416
aI1416858881
aI1416836968
aI1416846784
aI1416858826
aI1416863676
aI1416835762
aI1416837490
aI1416848109
aI1416831894
aI1416846343
aI1416837355
aI1416847346
aI1416859049
aI1416863516
aI1416847434
aI1416837293
aI1416859108
aI1416831538
aI1416865448
aI1416842959
aI1416837207
aI1416848232
aI1416845852
aI1416862908
aI1416835480
aI1416845775
aI1416842809
aI1416835495
aI1416837298
aI1416846336
aI1416837670
aI1416863987
aI1416842844
aI1416832874
aI1416837366
aI1416866434
aI1416865461
aI1416835644
aI1416856168
aI1416837045
aI1416837665
aI1416832355
aI1416858905
aI1416846688
aI1416857738
aI1416859194
aI1416847605
aI1416862921
aI1416837089
aI1416847374
aI1416856164
aI1416848327
aI1416846691
aI1416837640
aI1416831512
aI1416858923
aI1416846982
aI1416854509
aI1416845062
aI1416831482
aI1416832370
aI1416832755
aI1416854443
aI1416845047
aI1416835633
aI1416837181
aI1416847532
aI1416837045
aI1416847602
aI1416852127
aI1416843676
aI1416847377
aI1416836810
aI1416843691
aI1416856947
aI1416865425
aI1416842805
aI1416837267
aI1416831497
aI1416850700
aI1416837140
aI1416846734
aI1416847687
aI1416851217
aI1416835545
aI1416845762
aI1416837752
aI1416863617
aI1416864021
aI1416837175
aI1416837677
aI1416842956
aI1416862331
aI1416837044
aI1416860868
aI1416865376
aI1416846723
aI1416849028
aI1416858757
aI1416842966
aI1416836906
aI1416861025
aI1416859349
aI1416847265
aI1416837741
aI1416832941
aI1416835489
aI1416831411
aI1416858607
aI1416865002
aI1416851219
aI1416858670
aI1416851198
aI1416835757
aI1416858778
aI1416831844
aI1416860602
aI1416857914
aI1416837272
aI1416863484
aI1416849020
aI1416849023
aI1416836828
aI1416835516
aI1416837445
aI1416835748
aI1416837743
aI1416850949
aI1416837350
aI1416837506
aI1416856223
aI1416849085
aI1416842950
aI1416832716
aI1416845763
aI1416863517
aI1416863503
aI1416832610
aI1416848075
aI1416847345
aI1416848198
aI1416848090
aI1416836836
aI1416831564
aI1416833705
aI1416847569
aI1416866037
aI1416849099
aI1416857015
aI1416851225
aI1416846964
aI1416832438
aI1416831534
aI1416846775
aI1416837671
aI1416837075
aI1416837294
aI1416835707
aI1416836875
aI1416852136
aI1416836742
aI1416837483
aI1416831422
aI1416846980
aI1416852110
aI1416861072
aI1416847139
aI1416860995
aI1416835952
aI1416859212
aI1416837624
aI1416832743
aI1416835525
aI1416858859
aI1416847671
aI1416860650
aI1416837113
aI1416847553
aI1416835622
aI1416837694
aI1416846396
aI1416847178
aI1416836812
aI1416835950
aI1416859178
aI1416854432
aI1416833519
aI1416837688
aI1416836828
aI1416835767
aI1416849024
aI1416851255
aI1416861021
aI1416858765
aI1416865012
aI1416847029
aI1416837263
aI1416858905
aI1416837391
aI1416854364
aI1416847607
aI1416837514
aI1416850533
aI1416852147
aI1416861103
aI1416837344
aI1416862065
aI1416835801
aI1416866021
aI1416837460
aI1416856937
aI1416847566
aI1416837765
aI1416855062
aI1416846275
aI1416865418
aI1416837579
aI1416858786
aI1416835476
aI1416862937
aI1416845056
aI1416831623
aI1416837322
aI1416847553
aI1416836924
aI1416836808
aI1416837060
aI1416837010
aI1416858299
aI1416861014
aI1416865395
aI1416849024
aI1416849036
aI1416835636
aI1416848140
aI1416837590
aI1416859166
aI1416858739
aI1416832509
aI1416836900
aI1416831800
aI1416831948
aI1416832407
aI1416831479
aI1416859067
aI1416842918
aI1416859187
aI1416835654
aI1416847449
aI1416858817
aI1416847541
aI1416859060
aI1416857350
aI1416865997
aI1416837575
aI1416862312
aI1416837471
aI1416848553
aI1416845783
aI1416837496
aI1416859062
aI1416831778
aI1416831477
aI1416845079
aI1416846738
aI1416837655
aI1416852133
aI1416858988
aI1416857862
aI1416847218
aI1416863771
aI1416843687
aI1416837710
aI1416859840
aI1416846696
aI1416837693
aI1416860659
aI1416831264
aI1416866019
aI1416837522
aI1416849025
aI1416846765
aI1416865975
aI1416832503
aI1416845843
aI1416847102
aI1416831748
aI1416859360
aI1416831467
aI1416842821
aI1416835788
aI1416866014
aI1416832619
aI1416859003
aI1416863470
aI1416851237
aI1416848197
aI1416837357
aI1416863018
aI1416837414
aI1416837624
aI1416861014
aI1416858755
aI1416837393
aI1416847187
aI1416865054
aI1416831520
aI1416848546
aI1416848190
aI1416860601
aI1416845729
aI1416864044
aI1416831683
aI1416847141
aI1416837160
aI1416837480
aI1416848120
aI1416837515
aI1416851389
aI1416859001
aI1416837483
aI1416831755
aI1416837388
aI1416837072
aI1416832399
aI1416858781
aI1416837387
aI1416836788
aI1416837419
aI1416847415
aI1416845742
aI1416859124
aI1416847520
aI1416835540
aI1416863656
aI1416846991
aI1416843010
aI1416859054
aI1416837140
aI1416845061
aI1416863004
aI1416832619
aI1416863480
aI1416864034
aI1416847649
aI1416835607
aI1416847060
aI1416847127
aI1416846981
aI1416835557
aI1416846924
aI1416843675
aI1416836788
aI1416848620
aI1416835597
aI1416846980
aI1416837314
aI1416837589
aI1416831254
aI1416837486
aI1416835810
aI1416847154
aI1416835513
aI1416837218
aI1416832410
aI1416845730
aI1416837344
aI1416843675
aI1416856132
aI1416862316
aI1416859142
aI1416866329
aI1416856211
aI1416837334
aI1416832480
aI1416847475
aI1416837258
aI1416837109
aI1416836784
aI1416847618
aI1416831544
aI1416832759
aI1416847495
aI1416832390
aI1416848117
aI1416846984
aI1416835666
aI1416846992
aI1416835512
aI1416835659
aI1416859454
aI1416847210
aI1416833701
aI1416846341
aI1416836827
aI1416846766
aI1416858916
aI1416843629
aI1416835811
aI1416845796
aI1416837330
aI1416846733
aI1416858353
aI1416846367
aI1416843636
aI1416837365
aI1416836978
aI1416854997
aI1416837459
aI1416847265
aI1416865009
aI1416835566
aI1416832740
aI1416848240
aI1416846748
aI1416837150
aI1416842814
aI1416837358
aI1416837284
aI1416843023
aI1416837469
aI1416845051
aI1416851307
aI1416835679
aI1416837673
aI1416854443
aI1416845729
aI1416835900
aI1416848093
aI1416847627
aI1416860917
aI1416847005
aI1416847442
aI1416837457
aI1416835797
aI1416837636
aI1416860965
aI1416847539
aI1416865449
aI1416864074
aI1416847604
aI1416859044
aI1416846787
aI1416862311
aI1416832935
aI1416849108
aI1416846732
aI1416863984
aI1416837626
aI1416837120
aI1416852128
aI1416835662
aI1416837310
aI1416835481
aI1416855099
aI1416835532
aI1416846353
aI1416858871
aI1416862074
aI1416847599
aI1416837003
aI1416865434
aI1416859206
aI1416845780
aI1416848079
aI1416846805
aI1416837020
aI1416859135
aI1416856164
aI1416837193
aI1416863501
aI1416843622
aI1416865424
aI1416835679
aI1416837154
aI1416837686
aI1416836794
aI1416863756
aI1416863015
aI1416831495
aI1416858701
aI1416858692
aI1416846266
aI1416831543
aI1416831702
aI1416831411
aI1416858355
aI1416858710
aI1416858863
aI1416831286
aI1416837416
aI1416837664
aI1416836890
aI1416832618
aI1416862942
aI1416860263
aI1416863492
aI1416845756
aI1416859188
aI1416847379
aI1416855057
aI1416837569
aI1416860962
aI1416835488
aI1416858672
aI1416831983
aI1416831796
aI1416845049
aI1416831374
aI1416847577
aI1416837326
aI1416836798
aI1416843741
aI1416837266
aI1416847623
aI1416861077
aI1416837689
aI1416847505
aI1416831562
aI1416862345
aI1416860908
aI1416849021
aI1416846277
aI1416846961
aI1416851396
aI1416857804
aI1416837762
aI1416851195
aI1416831486
aI1416846387
aI1416837420
aI1416837721
aI1416836788
aI1416831771
aI1416862417
aI1416851188
aI1416832475
aI1416837702
aI1416832735
aI1416843691
aI1416863511
aI1416847200
aI1416863481
aI1416866050
aI1416847686
aI1416832360
aI1416862344
aI1416835770
aI1416842819
aI1416837404
aI1416851198
aI1416848231
aI1416856210
aI1416859298
aI1416848150
aI1416845722
aI1416832380
aI1416847489
aI1416855005
aI1416837588
aI1416857031
aI1416835475
aI1416832815
aI1416835765
aI1416843699
aI1416865380
aI1416836875
aI1416846794
aI1416848140
aI1416846319
aI1416837672
aI1416837283
aI1416847574
aI1416849022
aI1416842985
aI1416837129
aI1416837087
aI1416836643
aI1416846705
aI1416836877
aI1416864088
aI1416837086
aI1416831424
aI1416847130
aI1416835710
aI1416865967
aI1416847542
aI1416859304
aI1416852106
aI1416858650
aI1416861105
aI1416832372
aI1416858928
aI1416847510
aI1416847562
aI1416847633
aI1416852150
aI1416866076
aI1416847651
aI1416849117
aI1416832758
aI1416836922
aI1416837216
aI1416847528
aI1416831584
aI1416835697
aI1416861085
aI1416852108
aI1416851225
aI1416855088
aI1416851221
aI1416845731
aI1416831887
aI1416851331
aI1416829989
aI1416843627
aI1416851302
aI1416829738
aI1416860649
aI1416852157
aI1416830295
aI1416848091
aI1416857748
aI1416830389
aI1416848083
aI1416848103
aI1416857753
aI1416842817
aI1416859299
aI1416850549
aI1416829732
aI1416845783
aI1416859250
aI1416856227
aI1416843626
aI1416843643
aI1416858333
aI1416866018
aI1416832316
aI1416859843
asI18
(lp23
I1416865909
aI1416836177
aI1416836560
aI1416863845
aI1416852630
aI1416863865
aI1416851030
asI19
(lp24
I1416850435
aI1416852915
aI1416853262
aI1416862570
asI20
(lp25
I1416853437
aI1416836338
aI1416860034
aI1416853504
aI1416852694
aI1416851712
aI1416867703
aI1416836228
aI1416836319
aI1416836249
aI1416845265
aI1416862514
aI1416853435
aI1416853603
aI1416836227
aI1416853639
aI1416845166
aI1416853673
aI1416853427
aI1416845245
aI1416862579
aI1416851949
aI1416865278
aI1416867735
aI1416854229
aI1416858018
aI1416851821
aI1416852801
aI1416836331
aI1416836452
aI1416851724
aI1416865245
aI1416845220
aI1416853438
aI1416854242
aI1416836359
aI1416852796
aI1416858034
aI1416861526
aI1416863369
aI1416843519
aI1416843511
aI1416865583
aI1416851690
aI1416863290
aI1416852705
aI1416851677
aI1416853541
aI1416867737
aI1416849529
aI1416851885
aI1416862597
aI1416836467
aI1416849479
aI1416853363
aI1416836354
aI1416851798
aI1416845265
aI1416851745
aI1416851714
aI1416851683
aI1416861580
aI1416849479
aI1416865271
aI1416853525
aI1416853312
aI1416836328
aI1416862631
aI1416851793
aI1416836415
aI1416836329
aI1416855865
aI1416843411
aI1416853274
aI1416852797
aI1416853596
aI1416851733
aI1416836476
aI1416843404
aI1416845243
aI1416849445
aI1416850179
aI1416858090
aI1416836261
aI1416849670
aI1416843478
aI1416836331
aI1416854232
aI1416867733
aI1416861511
aI1416836314
aI1416843404
aI1416836494
aI1416852803
aI1416845222
aI1416853706
aI1416854222
aI1416843488
aI1416858035
aI1416862696
aI1416836232
aI1416852855
aI1416845266
aI1416845223
aI1416861254
aI1416852749
aI1416836516
aI1416851952
aI1416836398
aI1416836433
aI1416851960
aI1416855854
aI1416836478
aI1416836325
aI1416854255
aI1416851950
aI1416851943
aI1416836280
aI1416845164
aI1416865564
aI1416852784
aI1416851822
aI1416858006
aI1416850176
aI1416845160
aI1416853304
aI1416854278
aI1416854222
aI1416865294
aI1416836452
aI1416845268
aI1416852775
aI1416852755
aI1416843484
aI1416852749
aI1416853433
aI1416859969
aI1416851958
aI1416865233
aI1416852695
aI1416853396
aI1416836249
aI1416836304
aI1416851695
aI1416849668
aI1416863338
aI1416843400
aI1416863363
aI1416836506
aI1416853522
aI1416836335
aI1416852729
aI1416865282
aI1416861525
aI1416843498
aI1416863267
aI1416860057
aI1416849502
aI1416843436
aI1416843483
aI1416843478
aI1416843490
aI1416851695
aI1416860064
aI1416863274
aI1416863287
aI1416849514
aI1416863282
aI1416852795
aI1416858002
aI1416843487
aI1416860043
aI1416860056
aI1416843495
aI1416843483
aI1416836416
aI1416852795
aI1416852786
aI1416849517
aI1416851874
aI1416849514
aI1416849520
aI1416860044
aI1416849511
asa.